Certificate:
    Data:
        Version: 3 (0x2)
        Serial Number:
            42:57:8c:5f:ce:e9:7d:be:89:57:8f:b4:12:be:80:fb:d9:55:15:88
        Signature Algorithm: sha256WithRSAEncryption
        Issuer: C = FR, ST = IDF, L = Paris, O = NodeOPCUA, CN = NodeOPCUA-TEST
        Validity
            Not Before: May 27 08:39:04 2020 GMT
            Not After : May 24 08:39:04 2035 GMT
        Subject: C = FR, ST = IDF, L = Paris, O = NodeOPCUA, CN = NodeOPCUA-TEST
        Subject Public Key Info:
            Public Key Algorithm: rsaEncryption
                RSA Public-Key: (2048 bit)
                Modulus:
                    00:a2:c5:20:66:31:da:64:29:6b:0d:b0:0a:97:14:
                    79:b8:88:4a:9d:78:85:89:8a:0b:78:10:40:8f:cd:
                    2f:7c:a2:b4:36:1c:7c:ed:4b:5e:2d:5c:3e:6f:e9:
                    cb:89:66:60:eb:b0:05:ed:66:8d:41:67:a1:33:dc:
                    79:3f:5a:c6:7c:70:aa:7b:bc:90:c4:d6:a8:81:14:
                    66:3c:35:f5:e5:76:12:2f:38:f4:ca:8c:93:4d:2a:
                    6b:de:0e:86:b2:92:ae:34:f3:40:66:0f:89:6a:c6:
                    c4:31:aa:62:d7:66:af:5a:69:f7:f8:56:8e:e9:43:
                    62:97:ec:c4:77:89:d2:11:3f:86:30:03:3e:5d:ca:
                    b4:c1:37:97:23:a1:cb:6a:53:a7:89:e4:bf:8d:5e:
                    37:b0:f4:d9:58:02:92:50:a3:bf:05:77:cd:ee:1e:
                    30:bb:50:f9:ab:bb:c1:47:05:9b:1e:a7:06:7c:f7:
                    06:9c:55:66:58:34:85:38:87:63:61:73:e7:2a:76:
                    01:50:33:9c:30:2e:db:b2:6a:4c:76:30:8e:81:2d:
                    60:68:8c:bf:26:ed:21:8c:d2:32:b6:d2:7a:4a:81:
                    4b:74:db:9d:41:1c:ec:e3:78:d5:04:ed:b4:65:74:
                    0b:01:0a:48:a1:1d:e1:b4:ac:cd:fc:4a:1c:f4:39:
                    9a:8d
                Exponent: 65537 (0x10001)
        X509v3 extensions:
            X509v3 Subject Key Identifier: 
                8A:9D:5E:DE:1D:E7:6A:C3:86:7E:FE:95:68:49:FB:EB:D4:8B:2E:F4
            X509v3 Authority Key Identifier: 
                keyid:8A:9D:5E:DE:1D:E7:6A:C3:86:7E:FE:95:68:49:FB:EB:D4:8B:2E:F4

            X509v3 Basic Constraints: critical
                CA:FALSE
            X509v3 Key Usage: 
                Digital Signature, Non Repudiation, Key Encipherment, Data Encipherment, Certificate Sign
            X509v3 Extended Key Usage: 
                TLS Web Client Authentication, TLS Web Server Authentication
            Netscape Comment: 
                Self-signed certificate generated by Node-OPCUA Certificate utility
            X509v3 Subject Alternative Name: 
                URI:urn:ciccio-Lenovo-IdeaPad-S145-15AST:Node-OPCUA-Server, DNS:ciccio-Lenovo-IdeaPad-S145-15AST
    Signature Algorithm: sha256WithRSAEncryption
         12:38:a6:19:b1:84:34:a3:4c:b9:73:37:d8:85:d3:5f:d9:7a:
         8e:35:66:b9:c9:b0:86:e3:da:df:12:53:f7:8e:51:9d:16:39:
         94:82:1f:b3:14:3b:17:34:96:85:7b:d7:6b:30:dc:64:c9:0e:
         ea:74:61:29:f3:7b:10:af:1f:c6:ed:5b:f9:ce:6a:42:4a:e4:
         ff:06:f1:83:0d:a2:a8:c7:40:ed:f6:e0:5a:b4:55:3c:78:86:
         d9:0c:00:6e:30:ed:34:af:4e:e0:79:69:68:92:86:e5:15:d1:
         21:db:ae:71:08:4f:11:96:6b:e6:69:42:7b:40:8e:e0:7e:12:
         0b:34:db:70:02:4b:ce:56:e8:c3:6b:48:c6:72:88:cc:40:77:
         4a:99:9d:06:bf:e6:6b:86:c7:50:16:6b:36:0c:4c:47:3b:3f:
         c0:a1:fd:4d:94:25:b6:fd:5e:d0:67:0b:7c:40:c3:f6:8f:9a:
         0f:f1:a0:c5:84:55:ec:a4:70:89:b6:24:a2:79:9f:ed:25:f4:
         fb:91:b2:4e:eb:4d:93:05:b3:2d:20:ed:d6:b8:55:e1:98:d3:
         14:45:c3:46:99:90:8b:7b:0f:0f:13:32:e3:be:0d:5b:cb:34:
         a4:ed:62:06:3f:9f:fc:a2:c0:f7:44:8b:50:cb:0c:87:29:d2:
         48:f5:97:0f
-----BEGIN CERTIFICATE-----
MIIEdzCCA1+gAwIBAgIUQleMX87pfb6JV4+0Er6A+9lVFYgwDQYJKoZIhvcNAQEL
BQAwWDELMAkGA1UEBhMCRlIxDDAKBgNVBAgMA0lERjEOMAwGA1UEBwwFUGFyaXMx
EjAQBgNVBAoMCU5vZGVPUENVQTEXMBUGA1UEAwwOTm9kZU9QQ1VBLVRFU1QwHhcN
MjAwNTI3MDgzOTA0WhcNMzUwNTI0MDgzOTA0WjBYMQswCQYDVQQGEwJGUjEMMAoG
A1UECAwDSURGMQ4wDAYDVQQHDAVQYXJpczESMBAGA1UECgwJTm9kZU9QQ1VBMRcw
FQYDVQQDDA5Ob2RlT1BDVUEtVEVTVDCCASIwDQYJKoZIhvcNAQEBBQADggEPADCC
AQoCggEBAKLFIGYx2mQpaw2wCpcUebiISp14hYmKC3gQQI/NL3yitDYcfO1LXi1c
Pm/py4lmYOuwBe1mjUFnoTPceT9axnxwqnu8kMTWqIEUZjw19eV2Ei849MqMk00q
a94OhrKSrjTzQGYPiWrGxDGqYtdmr1pp9/hWjulDYpfsxHeJ0hE/hjADPl3KtME3
lyOhy2pTp4nkv41eN7D02VgCklCjvwV3ze4eMLtQ+au7wUcFmx6nBnz3BpxVZlg0
hTiHY2Fz5yp2AVAznDAu27JqTHYwjoEtYGiMvybtIYzSMrbSekqBS3TbnUEc7ON4
1QTttGV0CwEKSKEd4bSszfxKHPQ5mo0CAwEAAaOCATcwggEzMB0GA1UdDgQWBBSK
nV7eHedqw4Z+/pVoSfvr1Isu9DAfBgNVHSMEGDAWgBSKnV7eHedqw4Z+/pVoSfvr
1Isu9DAMBgNVHRMBAf8EAjAAMAsGA1UdDwQEAwIC9DAdBgNVHSUEFjAUBggrBgEF
BQcDAgYIKwYBBQUHAwEwUgYJYIZIAYb4QgENBEUWQ1NlbGYtc2lnbmVkIGNlcnRp
ZmljYXRlIGdlbmVyYXRlZCBieSBOb2RlLU9QQ1VBIENlcnRpZmljYXRlIHV0aWxp
dHkwYwYDVR0RBFwwWoY2dXJuOmNpY2Npby1MZW5vdm8tSWRlYVBhZC1TMTQ1LTE1
QVNUOk5vZGUtT1BDVUEtU2VydmVygiBjaWNjaW8tTGVub3ZvLUlkZWFQYWQtUzE0
NS0xNUFTVDANBgkqhkiG9w0BAQsFAAOCAQEAEjimGbGENKNMuXM32IXTX9l6jjVm
ucmwhuPa3xJT945RnRY5lIIfsxQ7FzSWhXvXazDcZMkO6nRhKfN7EK8fxu1b+c5q
Qkrk/wbxgw2iqMdA7fbgWrRVPHiG2QwAbjDtNK9O4HlpaJKG5RXRIduucQhPEZZr
5mlCe0CO4H4SCzTbcAJLzlbow2tIxnKIzEB3SpmdBr/ma4bHUBZrNgxMRzs/wKH9
TZQltv1e0GcLfEDD9o+aD/GgxYRV7KRwibYkonmf7SX0+5GyTutNkwWzLSDt1rhV
4ZjTFEXDRpmQi3sPDxMy474NW8s0pO1iBj+f/KLA90SLUMsMhynSSPWXDw==
-----END CERTIFICATE-----
