Certificate:
    Data:
        Version: 3 (0x2)
        Serial Number:
            1d:d3:1b:85:db:0a:70:d4:4e:1d:b8:c6:25:cc:f6:e4:6a:85:f3:9f
        Signature Algorithm: sha256WithRSAEncryption
        Issuer: C = FR, ST = IDF, L = Paris, O = NodeOPCUA, CN = NodeOPCUA-TEST
        Validity
            Not Before: May 27 08:39:03 2020 GMT
            Not After : May 24 08:39:03 2035 GMT
        Subject: C = FR, ST = IDF, L = Paris, O = NodeOPCUA, CN = NodeOPCUA-TEST
        Subject Public Key Info:
            Public Key Algorithm: rsaEncryption
                RSA Public-Key: (2048 bit)
                Modulus:
                    00:cb:4e:84:27:52:19:5e:7b:cf:9c:39:77:a8:82:
                    87:fa:d6:06:8b:b6:f4:ab:e4:72:0a:cf:30:29:ce:
                    9b:1f:ff:73:28:7d:b9:7e:d3:62:64:75:b9:23:b8:
                    f8:9a:07:4a:59:cb:13:c3:51:28:af:9c:8d:1d:7e:
                    bc:09:3e:38:a5:e3:96:ff:5b:9f:0c:92:cb:bc:b5:
                    6a:64:3b:bc:f3:f2:d5:37:b3:7a:d3:17:1a:0f:14:
                    68:87:84:65:57:b6:92:4a:8c:2d:25:99:34:c0:ea:
                    cf:7a:b7:fa:91:c3:08:53:8f:1e:9f:67:ef:60:86:
                    3a:59:f9:15:a9:89:59:27:5c:96:0a:be:0a:64:d2:
                    f4:ef:88:82:f7:4f:9a:48:93:4a:75:9d:f4:c8:99:
                    46:04:08:4a:a2:4f:54:80:d9:52:bd:23:a6:a3:fa:
                    35:7b:99:f4:18:f9:5b:2e:85:8a:45:66:3e:d7:79:
                    6b:77:3d:ed:83:60:e9:2f:08:60:c8:3d:c2:9d:83:
                    0a:08:d5:9f:8a:f1:49:a5:f3:aa:dc:04:0b:7f:d5:
                    b7:30:b5:48:8b:a8:ff:09:c0:26:4d:62:4c:f0:7f:
                    cb:26:bd:6f:90:be:b0:47:d5:9d:af:27:fb:d6:9b:
                    ed:ff:30:30:4e:be:c8:00:9f:37:e9:ef:73:cd:22:
                    05:b1
                Exponent: 65537 (0x10001)
        X509v3 extensions:
            X509v3 Subject Key Identifier: 
                4B:76:CF:C2:F0:2B:8E:87:2B:2F:16:AE:AD:DF:AE:20:17:4F:21:89
            X509v3 Authority Key Identifier: 
                keyid:4B:76:CF:C2:F0:2B:8E:87:2B:2F:16:AE:AD:DF:AE:20:17:4F:21:89

            X509v3 Basic Constraints: critical
                CA:FALSE
            X509v3 Key Usage: 
                Digital Signature, Non Repudiation, Key Encipherment, Data Encipherment, Certificate Sign
            X509v3 Extended Key Usage: 
                TLS Web Client Authentication, TLS Web Server Authentication
            Netscape Comment: 
                Self-signed certificate generated by Node-OPCUA Certificate utility
            X509v3 Subject Alternative Name: 
                URI:urn:ciccio-Lenovo-IdeaPad-S145-15AST:Node-OPCUA-Server, DNS:ciccio-Lenovo-IdeaPad-S145-15AST
    Signature Algorithm: sha256WithRSAEncryption
         45:df:a5:3a:e9:c3:5d:a5:4c:12:2a:4b:f5:26:78:f4:45:69:
         c9:6a:64:44:12:9b:d8:ec:8a:8e:c9:65:b0:ef:33:84:02:9c:
         d8:3c:90:67:1c:38:eb:5b:77:ae:6a:43:10:e6:09:f3:56:8f:
         ea:f2:9b:80:50:a8:13:07:0e:8e:39:0f:a8:67:9f:30:34:31:
         63:03:55:14:b8:5c:cc:cf:12:4a:04:35:a6:85:d1:2a:c1:9c:
         19:7a:1d:60:2c:a9:cb:a1:de:51:3c:44:24:69:cb:86:3b:6a:
         77:cc:58:16:6c:5f:4d:90:48:f0:fa:5f:0b:e3:d9:ca:c9:9e:
         66:0b:7c:b8:39:c2:03:a2:45:77:de:6f:91:7d:f8:63:73:0d:
         cf:9c:0e:ba:05:f4:a0:ad:10:86:f5:5d:88:57:f7:58:c3:6e:
         77:87:5a:db:9c:57:98:1a:a4:c0:f7:6a:b6:c6:10:5f:46:88:
         e2:de:10:52:a6:21:38:bd:49:c0:d8:53:34:a8:9c:b4:63:cb:
         d7:bb:22:ee:99:30:b5:19:be:38:05:9f:97:3e:3e:a6:83:52:
         3d:d2:8d:87:ec:fc:55:83:9f:f8:d1:e8:56:af:97:75:64:be:
         7f:04:32:a0:b9:8f:d3:d6:0b:f9:da:14:f9:fb:17:b3:92:84:
         48:99:2b:88
-----BEGIN CERTIFICATE-----
MIIEdzCCA1+gAwIBAgIUHdMbhdsKcNROHbjGJcz25GqF858wDQYJKoZIhvcNAQEL
BQAwWDELMAkGA1UEBhMCRlIxDDAKBgNVBAgMA0lERjEOMAwGA1UEBwwFUGFyaXMx
EjAQBgNVBAoMCU5vZGVPUENVQTEXMBUGA1UEAwwOTm9kZU9QQ1VBLVRFU1QwHhcN
MjAwNTI3MDgzOTAzWhcNMzUwNTI0MDgzOTAzWjBYMQswCQYDVQQGEwJGUjEMMAoG
A1UECAwDSURGMQ4wDAYDVQQHDAVQYXJpczESMBAGA1UECgwJTm9kZU9QQ1VBMRcw
FQYDVQQDDA5Ob2RlT1BDVUEtVEVTVDCCASIwDQYJKoZIhvcNAQEBBQADggEPADCC
AQoCggEBAMtOhCdSGV57z5w5d6iCh/rWBou29KvkcgrPMCnOmx//cyh9uX7TYmR1
uSO4+JoHSlnLE8NRKK+cjR1+vAk+OKXjlv9bnwySy7y1amQ7vPPy1TezetMXGg8U
aIeEZVe2kkqMLSWZNMDqz3q3+pHDCFOPHp9n72CGOln5FamJWSdclgq+CmTS9O+I
gvdPmkiTSnWd9MiZRgQISqJPVIDZUr0jpqP6NXuZ9Bj5Wy6FikVmPtd5a3c97YNg
6S8IYMg9wp2DCgjVn4rxSaXzqtwEC3/VtzC1SIuo/wnAJk1iTPB/yya9b5C+sEfV
na8n+9ab7f8wME6+yACfN+nvc80iBbECAwEAAaOCATcwggEzMB0GA1UdDgQWBBRL
ds/C8CuOhysvFq6t364gF08hiTAfBgNVHSMEGDAWgBRLds/C8CuOhysvFq6t364g
F08hiTAMBgNVHRMBAf8EAjAAMAsGA1UdDwQEAwIC9DAdBgNVHSUEFjAUBggrBgEF
BQcDAgYIKwYBBQUHAwEwUgYJYIZIAYb4QgENBEUWQ1NlbGYtc2lnbmVkIGNlcnRp
ZmljYXRlIGdlbmVyYXRlZCBieSBOb2RlLU9QQ1VBIENlcnRpZmljYXRlIHV0aWxp
dHkwYwYDVR0RBFwwWoY2dXJuOmNpY2Npby1MZW5vdm8tSWRlYVBhZC1TMTQ1LTE1
QVNUOk5vZGUtT1BDVUEtU2VydmVygiBjaWNjaW8tTGVub3ZvLUlkZWFQYWQtUzE0
NS0xNUFTVDANBgkqhkiG9w0BAQsFAAOCAQEARd+lOunDXaVMEipL9SZ49EVpyWpk
RBKb2OyKjsllsO8zhAKc2DyQZxw461t3rmpDEOYJ81aP6vKbgFCoEwcOjjkPqGef
MDQxYwNVFLhczM8SSgQ1poXRKsGcGXodYCypy6HeUTxEJGnLhjtqd8xYFmxfTZBI
8PpfC+PZysmeZgt8uDnCA6JFd95vkX34Y3MNz5wOugX0oK0QhvVdiFf3WMNud4da
25xXmBqkwPdqtsYQX0aI4t4QUqYhOL1JwNhTNKictGPL17si7pkwtRm+OAWflz4+
poNSPdKNh+z8VYOf+NHoVq+XdWS+fwQyoLmP09YL+doU+fsXs5KESJkriA==
-----END CERTIFICATE-----
