Certificate:
    Data:
        Version: 3 (0x2)
        Serial Number:
            60:f1:f0:6b:8a:96:be:53:38:9a:7a:7e:16:3d:f8:6f:4d:b0:15:6c
        Signature Algorithm: sha256WithRSAEncryption
        Issuer: C = FR, ST = IDF, L = Paris, O = NodeOPCUA, CN = NodeOPCUA-TEST
        Validity
            Not Before: May 27 08:39:05 2020 GMT
            Not After : May 24 08:39:05 2035 GMT
        Subject: C = FR, ST = IDF, L = Paris, O = NodeOPCUA, CN = NodeOPCUA-TEST
        Subject Public Key Info:
            Public Key Algorithm: rsaEncryption
                RSA Public-Key: (2048 bit)
                Modulus:
                    00:bd:d0:5f:ab:40:fd:fe:8a:08:08:20:65:a9:3b:
                    d0:b6:70:b2:cd:03:65:ab:92:d5:f2:36:73:ef:03:
                    8e:27:21:bd:fc:fb:d2:6f:04:47:e4:e0:9d:be:c4:
                    20:cf:fb:ac:3e:5d:c5:33:1a:5a:80:9f:dd:68:00:
                    c5:93:1d:05:bf:5a:d6:97:c7:cd:f9:04:9b:98:53:
                    78:c2:66:dc:d8:59:64:33:4e:28:7c:e9:42:77:0d:
                    7c:67:fd:28:72:05:f8:c8:9f:d5:ae:98:55:f2:ea:
                    2a:e5:c2:9b:e7:af:4d:71:bf:14:6a:78:65:e2:fa:
                    e3:db:f1:ac:b4:f5:ab:b7:57:58:a0:ae:59:81:9c:
                    b1:ca:ec:e1:bc:c5:89:e7:92:c8:9d:31:9a:03:07:
                    67:7b:ee:fe:c5:1f:52:09:9a:1f:4e:c4:9b:e6:7c:
                    d0:b1:75:fc:b0:02:d4:7c:23:1a:15:c3:a5:ef:65:
                    38:01:c7:c8:4f:72:1a:c8:d4:67:a7:d3:ed:75:b4:
                    83:c0:a2:65:10:64:19:f2:3c:73:57:dd:49:be:24:
                    08:c9:70:73:9b:81:9a:68:6b:56:2f:38:4f:9b:ba:
                    4f:e7:8a:0d:c2:46:9d:a7:57:19:e4:23:b0:a2:69:
                    97:b1:19:1c:03:09:4b:ab:07:a5:c7:ba:9e:e8:31:
                    4c:8f
                Exponent: 65537 (0x10001)
        X509v3 extensions:
            X509v3 Subject Key Identifier: 
                A7:74:6E:BA:7E:6E:D9:73:3B:81:74:B1:32:99:5A:1D:E6:FB:50:7B
            X509v3 Authority Key Identifier: 
                keyid:A7:74:6E:BA:7E:6E:D9:73:3B:81:74:B1:32:99:5A:1D:E6:FB:50:7B

            X509v3 Basic Constraints: critical
                CA:FALSE
            X509v3 Key Usage: 
                Digital Signature, Non Repudiation, Key Encipherment, Data Encipherment, Certificate Sign
            X509v3 Extended Key Usage: 
                TLS Web Client Authentication, TLS Web Server Authentication
            Netscape Comment: 
                Self-signed certificate generated by Node-OPCUA Certificate utility
            X509v3 Subject Alternative Name: 
                URI:urn:ciccio-Lenovo-IdeaPad-S145-15AST:Node-OPCUA-Server, DNS:ciccio-Lenovo-IdeaPad-S145-15AST
    Signature Algorithm: sha256WithRSAEncryption
         8d:46:01:37:e5:0d:cf:f9:48:e5:03:92:5d:74:28:ee:72:2d:
         c0:02:f2:a1:33:a3:8a:c0:90:5c:ad:44:7c:80:13:44:bd:09:
         65:6f:38:e0:a0:1a:2b:b9:cd:e3:2b:12:5a:a9:b6:61:6f:e4:
         6d:01:59:52:94:01:73:36:c0:77:e2:45:48:dc:46:16:02:f3:
         18:c2:fa:ed:ef:09:98:86:bf:80:56:70:8a:ff:73:86:b1:e7:
         1d:ce:31:db:f0:e4:76:a8:fa:18:7b:83:5a:05:85:92:77:2c:
         59:11:c5:a9:51:ff:47:10:c4:b3:1f:8a:47:76:d5:88:c4:b1:
         33:cc:fe:7f:a3:dd:3e:fb:57:fe:3a:d3:3c:fb:7a:78:dd:36:
         2e:c1:08:93:93:17:5a:03:a9:9f:b0:4b:14:43:40:73:45:32:
         23:b5:a2:70:77:e9:18:fb:ea:f4:8e:77:53:0f:b0:67:3f:c2:
         15:02:cb:e8:8c:5c:49:a1:00:af:bb:dd:df:df:d6:33:e7:87:
         0f:1f:1a:63:fc:78:1d:2e:ec:c1:8b:c7:9f:ed:7f:63:69:81:
         4b:ee:90:9c:ad:3d:01:6e:8b:01:9c:75:13:db:5a:ad:95:03:
         83:8c:f8:be:00:1e:76:6e:41:34:ea:dd:db:55:06:c9:c1:56:
         17:95:9c:fa
-----BEGIN CERTIFICATE-----
MIIEdzCCA1+gAwIBAgIUYPHwa4qWvlM4mnp+Fj34b02wFWwwDQYJKoZIhvcNAQEL
BQAwWDELMAkGA1UEBhMCRlIxDDAKBgNVBAgMA0lERjEOMAwGA1UEBwwFUGFyaXMx
EjAQBgNVBAoMCU5vZGVPUENVQTEXMBUGA1UEAwwOTm9kZU9QQ1VBLVRFU1QwHhcN
MjAwNTI3MDgzOTA1WhcNMzUwNTI0MDgzOTA1WjBYMQswCQYDVQQGEwJGUjEMMAoG
A1UECAwDSURGMQ4wDAYDVQQHDAVQYXJpczESMBAGA1UECgwJTm9kZU9QQ1VBMRcw
FQYDVQQDDA5Ob2RlT1BDVUEtVEVTVDCCASIwDQYJKoZIhvcNAQEBBQADggEPADCC
AQoCggEBAL3QX6tA/f6KCAggZak70LZwss0DZauS1fI2c+8Djichvfz70m8ER+Tg
nb7EIM/7rD5dxTMaWoCf3WgAxZMdBb9a1pfHzfkEm5hTeMJm3NhZZDNOKHzpQncN
fGf9KHIF+Mif1a6YVfLqKuXCm+evTXG/FGp4ZeL649vxrLT1q7dXWKCuWYGcscrs
4bzFieeSyJ0xmgMHZ3vu/sUfUgmaH07Em+Z80LF1/LAC1HwjGhXDpe9lOAHHyE9y
GsjUZ6fT7XW0g8CiZRBkGfI8c1fdSb4kCMlwc5uBmmhrVi84T5u6T+eKDcJGnadX
GeQjsKJpl7EZHAMJS6sHpce6nugxTI8CAwEAAaOCATcwggEzMB0GA1UdDgQWBBSn
dG66fm7ZczuBdLEymVod5vtQezAfBgNVHSMEGDAWgBSndG66fm7ZczuBdLEymVod
5vtQezAMBgNVHRMBAf8EAjAAMAsGA1UdDwQEAwIC9DAdBgNVHSUEFjAUBggrBgEF
BQcDAgYIKwYBBQUHAwEwUgYJYIZIAYb4QgENBEUWQ1NlbGYtc2lnbmVkIGNlcnRp
ZmljYXRlIGdlbmVyYXRlZCBieSBOb2RlLU9QQ1VBIENlcnRpZmljYXRlIHV0aWxp
dHkwYwYDVR0RBFwwWoY2dXJuOmNpY2Npby1MZW5vdm8tSWRlYVBhZC1TMTQ1LTE1
QVNUOk5vZGUtT1BDVUEtU2VydmVygiBjaWNjaW8tTGVub3ZvLUlkZWFQYWQtUzE0
NS0xNUFTVDANBgkqhkiG9w0BAQsFAAOCAQEAjUYBN+UNz/lI5QOSXXQo7nItwALy
oTOjisCQXK1EfIATRL0JZW844KAaK7nN4ysSWqm2YW/kbQFZUpQBczbAd+JFSNxG
FgLzGML67e8JmIa/gFZwiv9zhrHnHc4x2/Dkdqj6GHuDWgWFkncsWRHFqVH/RxDE
sx+KR3bViMSxM8z+f6PdPvtX/jrTPPt6eN02LsEIk5MXWgOpn7BLFENAc0UyI7Wi
cHfpGPvq9I53Uw+wZz/CFQLL6IxcSaEAr7vd39/WM+eHDx8aY/x4HS7swYvHn+1/
Y2mBS+6QnK09AW6LAZx1E9tarZUDg4z4vgAedm5BNOrd21UGycFWF5Wc+g==
-----END CERTIFICATE-----
